; Function Attrs: nofree nounwind uwtable
define noalias noundef ptr @Gia_ManFlops2Classes(ptr noundef readonly captures(none) %0, ptr noundef readonly captures(none) %1) local_unnamed_addr #6 {
  %3 = getelementptr i8, ptr %0, i64 16
  %.val9 = load i32, ptr %3, align 8
  %4 = tail call noalias dereferenceable_or_null(16) ptr @malloc(i64 noundef 16) #21
  %5 = add i32 %.val9, -1
  %or.cond.i.i = icmp ult i32 %5, 15
  %spec.store.select.i.i = select i1 %or.cond.i.i, i32 16, i32 %.val9
  %6 = getelementptr inbounds nuw i8, ptr %4, i64 4
  store i32 %spec.store.select.i.i, ptr %4, align 8
  %.not.i.i = icmp eq i32 %spec.store.select.i.i, 0
  br i1 %.not.i.i, label %Vec_IntAlloc.exit.thread.i, label %Vec_IntAlloc.exit.i

Vec_IntAlloc.exit.thread.i:                       ; preds = %2
  %7 = getelementptr inbounds nuw i8, ptr %4, i64 8
  store ptr null, ptr %7, align 8
  store i32 %.val9, ptr %6, align 4
  br label %Vec_IntStart.exit

Vec_IntAlloc.exit.i:                              ; preds = %2
  %8 = sext i32 %spec.store.select.i.i to i64
  %9 = shl nsw i64 %8, 2
  %10 = tail call noalias ptr @malloc(i64 noundef %9) #21
  %11 = getelementptr inbounds nuw i8, ptr %4, i64 8
  store ptr %10, ptr %11, align 8
  store i32 %.val9, ptr %6, align 4
  %.not.i = icmp eq ptr %10, null
  br i1 %.not.i, label %Vec_IntStart.exit, label %12

12:                                               ; preds = %Vec_IntAlloc.exit.i
  %13 = sext i32 %.val9 to i64
  %14 = shl nsw i64 %13, 2
  tail call void @llvm.memset.p0.i64(ptr nonnull align 4 %10, i8 0, i64 %14, i1 false)
  br label %Vec_IntStart.exit

Vec_IntStart.exit:                                ; preds = %Vec_IntAlloc.exit.thread.i, %Vec_IntAlloc.exit.i, %12
  %.val10 = phi ptr [ null, %Vec_IntAlloc.exit.thread.i ], [ null, %Vec_IntAlloc.exit.i ], [ %10, %12 ]
  %15 = getelementptr i8, ptr %1, i64 4
  %.val811 = load i32, ptr %15, align 4
  %16 = icmp sgt i32 %.val811, 0
  br i1 %16, label %.lr.ph, label %.critedge

.lr.ph:                                           ; preds = %Vec_IntStart.exit
  %17 = getelementptr i8, ptr %1, i64 8
  %.val.pre = load ptr, ptr %17, align 8
  %18 = zext nneg i32 %.val811 to i64
  br label %19

19:                                               ; preds = %.lr.ph, %19
  %indvars.iv = phi i64 [ 0, %.lr.ph ], [ %indvars.iv.next, %19 ]
  %20 = getelementptr inbounds nuw i32, ptr %.val.pre, i64 %indvars.iv
  %21 = load i32, ptr %20, align 4
  %22 = sext i32 %21 to i64
  %23 = getelementptr inbounds i32, ptr %.val10, i64 %22
  store i32 1, ptr %23, align 4
  %indvars.iv.next = add nuw nsw i64 %indvars.iv, 1
  %24 = icmp samesign ult i64 %indvars.iv.next, %18
  br i1 %24, label %19, label %.critedge, !llvm.loop !14

.critedge:                                        ; preds = %19, %Vec_IntStart.exit
  ret ptr %4
}